target datalayout = "e-m:e-p270:32:32-p271:32:32-p272:64:64-i64:64-i128:128-f80:128-n8:16:32:64-S128"
target triple = "x86_64-pc-linux-gnu"

; Function Attrs: null_pointer_is_valid sspstrong uwtable
define internal zeroext i1 @test_someip(ptr noundef %0, ptr noundef %1, i32 noundef %2, ptr noundef %3) #0 {
  %5 = alloca i1, align 1
  %6 = alloca ptr, align 8
  %7 = alloca ptr, align 8
  %8 = alloca i32, align 4
  %9 = alloca ptr, align 8
  store ptr %0, ptr %6, align 8
  store ptr %1, ptr %7, align 8
  store i32 %2, ptr %8, align 4
  store ptr %3, ptr %9, align 8
  %10 = load ptr, ptr %7, align 8
  %11 = call i32 @tvb_captured_length(ptr noundef %10)
  %12 = icmp ult i32 %11, 16
  br i1 %12, label %13, label %14

13:                                               ; preds = %4
  store i1 false, ptr %5, align 1
  br label %34

14:                                               ; preds = %4
  %15 = load ptr, ptr %7, align 8
  %16 = call i32 @tvb_get_uint32(ptr noundef %15, i32 noundef 4, i32 noundef 0)
  %17 = icmp ult i32 %16, 8
  br i1 %17, label %18, label %19

18:                                               ; preds = %14
  store i1 false, ptr %5, align 1
  br label %34

19:                                               ; preds = %14
  %20 = load ptr, ptr %7, align 8
  %21 = call zeroext i8 @tvb_get_uint8(ptr noundef %20, i32 noundef 12)
  %22 = zext i8 %21 to i32
  %23 = icmp ne i32 %22, 1
  br i1 %23, label %24, label %25

24:                                               ; preds = %19
  store i1 false, ptr %5, align 1
  br label %34

25:                                               ; preds = %19
  %26 = load ptr, ptr %7, align 8
  %27 = call zeroext i8 @tvb_get_uint8(ptr noundef %26, i32 noundef 14)
  %28 = zext i8 %27 to i32
  %29 = and i32 %28, -33
  %30 = call ptr @try_val_to_str(i32 noundef %29, ptr noundef @someip_msg_type)
  %31 = icmp ne ptr %30, null
  br i1 %31, label %33, label %32

32:                                               ; preds = %25
  store i1 false, ptr %5, align 1
  br label %34

33:                                               ; preds = %25
  store i1 true, ptr %5, align 1
  br label %34

34:                                               ; preds = %33, %32, %24, %18, %13
  %35 = load i1, ptr %5, align 1
  ret i1 %35
}

; Function Attrs: null_pointer_is_valid sspstrong uwtable
define internal zeroext i1 @dissect_some_ip_heur_tcp(ptr noundef %0, ptr noundef %1, ptr noundef %2, ptr noundef %3) #0 {
  %5 = alloca i1, align 1
  %6 = alloca ptr, align 8
  %7 = alloca ptr, align 8
  %8 = alloca ptr, align 8
  %9 = alloca ptr, align 8
  store ptr %0, ptr %6, align 8
  store ptr %1, ptr %7, align 8
  store ptr %2, ptr %8, align 8
  store ptr %3, ptr %9, align 8
  %10 = load ptr, ptr %7, align 8
  %11 = load ptr, ptr %6, align 8
  %12 = load ptr, ptr %9, align 8
  %13 = call zeroext i1 @test_someip(ptr noundef %10, ptr noundef %11, i32 noundef 0, ptr noundef %12)
  br i1 %13, label %14, label %19

14:                                               ; preds = %4
  %15 = load ptr, ptr %6, align 8
  %16 = load ptr, ptr %7, align 8
  %17 = load ptr, ptr %8, align 8
  %18 = load ptr, ptr %9, align 8
  call void @tcp_dissect_pdus(ptr noundef %15, ptr noundef %16, ptr noundef %17, i1 noundef zeroext true, i32 noundef 8, ptr noundef @get_someip_message_len, ptr noundef @dissect_someip_message, ptr noundef %18)
  store i1 true, ptr %5, align 1
  br label %20

19:                                               ; preds = %4
  store i1 false, ptr %5, align 1
  br label %20

20:                                               ; preds = %19, %14
  %21 = load i1, ptr %5, align 1
  ret i1 %21
}