; Function Attrs: null_pointer_is_valid sspstrong uwtable
define internal noundef zeroext i1 @dissect_some_ip_heur_tcp(ptr noundef %0, ptr noundef %1, ptr noundef %2, ptr noundef %3) #0 {
  %5 = tail call i32 @tvb_captured_length(ptr noundef %0)
  %6 = icmp ult i32 %5, 16
  br i1 %6, label %test_someip.exit.thread, label %7

7:                                                ; preds = %4
  %8 = tail call i32 @tvb_get_uint32(ptr noundef %0, i32 noundef 4, i32 noundef 0)
  %9 = icmp ult i32 %8, 8
  br i1 %9, label %test_someip.exit.thread, label %10

10:                                               ; preds = %7
  %11 = tail call zeroext i8 @tvb_get_uint8(ptr noundef %0, i32 noundef 12)
  %.not.i = icmp eq i8 %11, 1
  br i1 %.not.i, label %test_someip.exit, label %test_someip.exit.thread

test_someip.exit:                                 ; preds = %10
  %12 = tail call zeroext i8 @tvb_get_uint8(ptr noundef %0, i32 noundef 14)
  %13 = and i8 %12, -33
  %14 = zext i8 %13 to i32
  %15 = tail call ptr @try_val_to_str(i32 noundef %14, ptr noundef nonnull @someip_msg_type)
  %.not5.i.not = icmp eq ptr %15, null
  br i1 %.not5.i.not, label %test_someip.exit.thread, label %16

16:                                               ; preds = %test_someip.exit
  tail call void @tcp_dissect_pdus(ptr noundef %0, ptr noundef %1, ptr noundef %2, i1 noundef zeroext true, i32 noundef 8, ptr noundef nonnull @get_someip_message_len, ptr noundef nonnull @dissect_someip_message, ptr noundef %3)
  br label %test_someip.exit.thread

test_someip.exit.thread:                          ; preds = %10, %7, %4, %test_someip.exit, %16
  %.0.i9 = phi i1 [ false, %test_someip.exit ], [ true, %16 ], [ false, %4 ], [ false, %7 ], [ false, %10 ]
  ret i1 %.0.i9
}